(dp1
S'2/4'
p2
(lp3
(lp4
I1
aI2
aI2
aI2
aI2
aI2
aI2
aI2
aI2
aI2
aI2
aI2
aI2
aI2
aaI1
asS'3/2'
p5
(lp6
(lp7
I1
aI3
aI2
aI2
aI2
aI2
aI2
aI2
aI2
aI2
aI2
aI2
aI2
aI2
aaI1
asS'3/4'
p8
(lp9
(lp10
I1
aI3
aI2
aI2
aI2
aI2
aI2
aI2
aI2
aI2
aI2
aI2
aI2
aI2
aaI1
asS'12/8'
p11
(lp12
(lp13
I1
aI2
aI2
aI3
aI2
aI2
aI2
aI2
aI2
aI2
aI2
aI2
aI2
aI2
aaI2
asS'3/8'
p14
(lp15
(lp16
I1
aI3
aI2
aI2
aI2
aI2
aI2
aI2
aI2
aI2
aI2
aI2
aI2
aI2
aaI1
asS'2/2'
p17
(lp18
(lp19
I1
aI2
aI2
aI2
aI2
aI2
aI2
aI2
aI2
aI2
aI2
aI2
aI2
aI2
aaI1
asS'6/8'
p20
(lp21
(lp22
I1
aI2
aI3
aI2
aI2
aI2
aI2
aI2
aI2
aI2
aI2
aI2
aI2
aI2
aaI1
asS'5/4'
p23
(lp24
(lp25
I1
aI5
aI2
aI2
aI2
aI2
aI2
aI2
aI2
aI2
aI2
aI2
aI2
aI2
aaI1
asS'4/2'
p26
(lp27
(lp28
I1
aI2
aI2
aI2
aI2
aI2
aI2
aI2
aI2
aI2
aI2
aI2
aI2
aI2
aaI1
asS'7/4'
p29
(lp30
(lp31
I1
aI7
aI2
aI2
aI2
aI2
aI2
aI2
aI2
aI2
aI2
aI2
aI2
aI2
aaI1
asS'5/8'
p32
(lp33
(lp34
I1
aI5
aI2
aI2
aI2
aI2
aI2
aI2
aI2
aI2
aI2
aI2
aI2
aI2
aaI1
asS'4/4'
p35
(lp36
(lp37
I1
aI2
aI2
aI2
aI2
aI2
aI2
aI2
aI2
aI2
aI2
aI2
aI2
aI2
aaI2
asS'9/8'
p38
(lp39
(lp40
I1
aI3
aI3
aI2
aI2
aI2
aI2
aI2
aI2
aI2
aI2
aI2
aI2
aI2
aaI1
as.